target datalayout = "e-m:e-p270:32:32-p271:32:32-p272:64:64-i64:64-i128:128-f80:128-n8:16:32:64-S128"
target triple = "x86_64-unknown-linux-gnu"

%"class.proxygen::ResponseHandler" = type { ptr, ptr, ptr }

; Function Attrs: mustprogress nounwind uwtable
define void @_ZN8proxygen21RequestHandlerAdaptor14setTransactionEPNS_15HTTPTransactionE(ptr noundef nonnull align 8 dereferenceable(36) %this, ptr noundef %txn) unnamed_addr #5 align 2 {
entry:
  %this.addr = alloca ptr, align 8
  %txn.addr = alloca ptr, align 8
  store ptr %this, ptr %this.addr, align 8
  store ptr %txn, ptr %txn.addr, align 8
  %this1 = load ptr, ptr %this.addr, align 8
  %0 = load ptr, ptr %txn.addr, align 8
  %add.ptr = getelementptr inbounds i8, ptr %this1, i64 8
  %txn_ = getelementptr inbounds %"class.proxygen::ResponseHandler", ptr %add.ptr, i32 0, i32 2
  store ptr %0, ptr %txn_, align 8
  %add.ptr2 = getelementptr inbounds i8, ptr %this1, i64 8
  %upstream_ = getelementptr inbounds %"class.proxygen::ResponseHandler", ptr %add.ptr2, i32 0, i32 1
  %1 = load ptr, ptr %upstream_, align 8
  %add.ptr3 = getelementptr inbounds i8, ptr %this1, i64 8
  %vtable = load ptr, ptr %1, align 8
  %vfn = getelementptr inbounds ptr, ptr %vtable, i64 0
  %2 = load ptr, ptr %vfn, align 8
  call void %2(ptr noundef nonnull align 8 dereferenceable(16) %1, ptr noundef %add.ptr3) #3
  ret void
}