; Function Attrs: mustprogress nounwind uwtable
define void @_ZN8proxygen21RequestHandlerAdaptor14setTransactionEPNS_15HTTPTransactionE(ptr noundef nonnull align 8 dereferenceable(36) %this, ptr noundef %txn) unnamed_addr #4 align 2 {
entry:
  %add.ptr = getelementptr inbounds i8, ptr %this, i64 8
  %txn_ = getelementptr inbounds i8, ptr %this, i64 24
  store ptr %txn, ptr %txn_, align 8
  %upstream_ = getelementptr inbounds i8, ptr %this, i64 16
  %0 = load ptr, ptr %upstream_, align 8
  %vtable = load ptr, ptr %0, align 8
  %1 = load ptr, ptr %vtable, align 8
  tail call void %1(ptr noundef nonnull align 8 dereferenceable(16) %0, ptr noundef nonnull %add.ptr) #19
  ret void
}